target datalayout = "e-m:e-p270:32:32-p271:32:32-p272:64:64-i64:64-i128:128-f80:128-n8:16:32:64-S128"
target triple = "x86_64-pc-linux-gnu"

%class.ShenandoahSTWMarkTask = type { %class.WorkerTask.base, ptr }
%class.WorkerTask.base = type <{ ptr, ptr, i32 }>
%class.WorkerTask = type <{ ptr, ptr, i32, [4 x i8] }>

@.str = private unnamed_addr constant [20 x i8] c"Shenandoah STW mark\00", align 1
@_ZTV21ShenandoahSTWMarkTask = hidden unnamed_addr constant { [3 x ptr] } { [3 x ptr] [ptr null, ptr null, ptr @_ZN21ShenandoahSTWMarkTask4workEj] }, align 8
@_ZTV10WorkerTask = linkonce_odr hidden unnamed_addr constant { [3 x ptr] } { [3 x ptr] [ptr null, ptr null, ptr @__cxa_pure_virtual] }, comdat, align 8

; Function Attrs: mustprogress nounwind uwtable
define linkonce_odr hidden void @_ZN10WorkerTaskC2EPKc(ptr noundef nonnull align 8 dereferenceable(20) %0, ptr noundef %1) unnamed_addr #1 comdat align 2 {
  %3 = alloca ptr, align 8
  %4 = alloca ptr, align 8
  store ptr %0, ptr %3, align 8
  store ptr %1, ptr %4, align 8
  %5 = load ptr, ptr %3, align 8
  store ptr getelementptr inbounds inrange(-16, 8) ({ [3 x ptr] }, ptr @_ZTV10WorkerTask, i32 0, i32 0, i32 2), ptr %5, align 8
  %6 = getelementptr inbounds %class.WorkerTask, ptr %5, i32 0, i32 1
  %7 = load ptr, ptr %4, align 8
  store ptr %7, ptr %6, align 8
  %8 = getelementptr inbounds %class.WorkerTask, ptr %5, i32 0, i32 2
  %9 = call noundef i32 @_ZN4GCId20current_or_undefinedEv()
  store i32 %9, ptr %8, align 8
  ret void
}

; Function Attrs: mustprogress nounwind uwtable
define hidden void @_ZN21ShenandoahSTWMarkTaskC2EP17ShenandoahSTWMark(ptr noundef nonnull align 8 dereferenceable(32) %0, ptr noundef %1) unnamed_addr #1 align 2 {
  %3 = alloca ptr, align 8
  %4 = alloca ptr, align 8
  store ptr %0, ptr %3, align 8
  store ptr %1, ptr %4, align 8
  %5 = load ptr, ptr %3, align 8
  call void @_ZN10WorkerTaskC2EPKc(ptr noundef nonnull align 8 dereferenceable(20) %5, ptr noundef @.str)
  store ptr getelementptr inbounds inrange(-16, 8) ({ [3 x ptr] }, ptr @_ZTV21ShenandoahSTWMarkTask, i32 0, i32 0, i32 2), ptr %5, align 8
  %6 = getelementptr inbounds %class.ShenandoahSTWMarkTask, ptr %5, i32 0, i32 1
  %7 = load ptr, ptr %4, align 8
  store ptr %7, ptr %6, align 8
  ret void
}