; Function Attrs: mustprogress nounwind uwtable
define hidden void @_ZN21ShenandoahSTWMarkTaskC2EP17ShenandoahSTWMark(ptr nocapture noundef nonnull writeonly align 8 dereferenceable(32) %0, ptr noundef %1) unnamed_addr #0 align 2 {
  store ptr getelementptr inbounds inrange(-16, 8) (i8, ptr @_ZTV10WorkerTask, i64 16), ptr %0, align 8
  %3 = getelementptr inbounds i8, ptr %0, i64 8
  store ptr @.str, ptr %3, align 8
  %4 = getelementptr inbounds i8, ptr %0, i64 16
  %5 = tail call noundef i32 @_ZN4GCId20current_or_undefinedEv() #7
  store i32 %5, ptr %4, align 8
  store ptr getelementptr inbounds inrange(-16, 8) (i8, ptr @_ZTV21ShenandoahSTWMarkTask, i64 16), ptr %0, align 8
  %6 = getelementptr inbounds i8, ptr %0, i64 24
  store ptr %1, ptr %6, align 8
  ret void
}